; Function Attrs: mustprogress nofree norecurse nosync nounwind willreturn memory(none) uwtable
define dso_local noundef zeroext i1 @_ZN2EA4StdC10IsLeapYearEj(i32 noundef %nYear) local_unnamed_addr #4 {
entry:
  %and = and i32 %nYear, 3
  %tobool.not = icmp ne i32 %and, 0
  %rem = urem i32 %nYear, 100
  %tobool1.not = icmp eq i32 %rem, 0
  %or.cond = or i1 %tobool.not, %tobool1.not
  br i1 %or.cond, label %lor.rhs, label %lor.end

lor.rhs:                                          ; preds = %entry
  %rem2 = urem i32 %nYear, 400
  %tobool3.not = icmp eq i32 %rem2, 0
  br label %lor.end

lor.end:                                          ; preds = %entry, %lor.rhs
  %0 = phi i1 [ %tobool3.not, %lor.rhs ], [ true, %entry ]
  ret i1 %0
}